target datalayout = "e-m:e-p270:32:32-p271:32:32-p272:64:64-i64:64-i128:128-f80:128-n8:16:32:64-S128"
target triple = "x86_64-pc-linux-gnu"

%struct.Map_TimeStruct_t_ = type { float, float, float }
%struct.Map_SuperStruct_t_ = type { i32, i32, [4 x i8], i32, [6 x ptr], ptr, [2 x i32], [6 x %struct.Map_TimeStruct_t_], [6 x %struct.Map_TimeStruct_t_], %struct.Map_TimeStruct_t_, float, ptr, ptr }

@.str.2 = private unnamed_addr constant [7 x i8] c"%5d : \00", align 1
@.str.3 = private unnamed_addr constant [7 x i8] c"%5d   \00", align 1
@.str.4 = private unnamed_addr constant [13 x i8] c"A = %5.2f   \00", align 1
@.str.5 = private unnamed_addr constant [25 x i8] c"D = %5.2f/%5.2f/%5.2f   \00", align 1
@.str.6 = private unnamed_addr constant [3 x i8] c"%s\00", align 1
@.str.7 = private unnamed_addr constant [2 x i8] c"\0A\00", align 1

; Function Attrs: nounwind uwtable
define void @Map_LibraryPrintSupergate(ptr noundef %0) #0 {
  %2 = alloca ptr, align 8
  store ptr %0, ptr %2, align 8, !tbaa !35
  %3 = load ptr, ptr %2, align 8, !tbaa !35
  %4 = getelementptr inbounds nuw %struct.Map_SuperStruct_t_, ptr %3, i32 0, i32 3
  %5 = load i32, ptr %4, align 4, !tbaa !49
  %6 = call i32 (ptr, ...) @printf(ptr noundef @.str.2, i32 noundef %5)
  %7 = load ptr, ptr %2, align 8, !tbaa !35
  %8 = getelementptr inbounds nuw %struct.Map_SuperStruct_t_, ptr %7, i32 0, i32 0
  %9 = load i32, ptr %8, align 8, !tbaa !50
  %10 = call i32 (ptr, ...) @printf(ptr noundef @.str.3, i32 noundef %9)
  %11 = load ptr, ptr %2, align 8, !tbaa !35
  %12 = getelementptr inbounds nuw %struct.Map_SuperStruct_t_, ptr %11, i32 0, i32 10
  %13 = load float, ptr %12, align 4, !tbaa !51
  %14 = fpext float %13 to double
  %15 = call i32 (ptr, ...) @printf(ptr noundef @.str.4, double noundef %14)
  %16 = load ptr, ptr %2, align 8, !tbaa !35
  %17 = getelementptr inbounds nuw %struct.Map_SuperStruct_t_, ptr %16, i32 0, i32 9
  %18 = getelementptr inbounds nuw %struct.Map_TimeStruct_t_, ptr %17, i32 0, i32 0
  %19 = load float, ptr %18, align 8, !tbaa !52
  %20 = fpext float %19 to double
  %21 = load ptr, ptr %2, align 8, !tbaa !35
  %22 = getelementptr inbounds nuw %struct.Map_SuperStruct_t_, ptr %21, i32 0, i32 9
  %23 = getelementptr inbounds nuw %struct.Map_TimeStruct_t_, ptr %22, i32 0, i32 1
  %24 = load float, ptr %23, align 4, !tbaa !53
  %25 = fpext float %24 to double
  %26 = load ptr, ptr %2, align 8, !tbaa !35
  %27 = getelementptr inbounds nuw %struct.Map_SuperStruct_t_, ptr %26, i32 0, i32 9
  %28 = getelementptr inbounds nuw %struct.Map_TimeStruct_t_, ptr %27, i32 0, i32 2
  %29 = load float, ptr %28, align 8, !tbaa !54
  %30 = fpext float %29 to double
  %31 = call i32 (ptr, ...) @printf(ptr noundef @.str.5, double noundef %20, double noundef %25, double noundef %30)
  %32 = load ptr, ptr %2, align 8, !tbaa !35
  %33 = getelementptr inbounds nuw %struct.Map_SuperStruct_t_, ptr %32, i32 0, i32 11
  %34 = load ptr, ptr %33, align 8, !tbaa !36
  %35 = call i32 (ptr, ...) @printf(ptr noundef @.str.6, ptr noundef %34)
  %36 = call i32 (ptr, ...) @printf(ptr noundef @.str.7)
  ret void
}