; Function Attrs: nofree nounwind uwtable
define void @Map_LibraryPrintSupergate(ptr noundef readonly captures(none) %0) local_unnamed_addr #4 {
  %2 = getelementptr inbounds nuw i8, ptr %0, i64 12
  %3 = load i32, ptr %2, align 4, !tbaa !48
  %4 = tail call i32 (ptr, ...) @printf(ptr noundef nonnull dereferenceable(1) @.str.2, i32 noundef %3)
  %5 = load i32, ptr %0, align 8, !tbaa !29
  %6 = tail call i32 (ptr, ...) @printf(ptr noundef nonnull dereferenceable(1) @.str.3, i32 noundef %5)
  %7 = getelementptr inbounds nuw i8, ptr %0, i64 236
  %8 = load float, ptr %7, align 4, !tbaa !36
  %9 = fpext float %8 to double
  %10 = tail call i32 (ptr, ...) @printf(ptr noundef nonnull dereferenceable(1) @.str.4, double noundef %9)
  %11 = getelementptr inbounds nuw i8, ptr %0, i64 224
  %12 = load float, ptr %11, align 8, !tbaa !31
  %13 = fpext float %12 to double
  %14 = getelementptr inbounds nuw i8, ptr %0, i64 228
  %15 = load float, ptr %14, align 4, !tbaa !32
  %16 = fpext float %15 to double
  %17 = getelementptr inbounds nuw i8, ptr %0, i64 232
  %18 = load float, ptr %17, align 8, !tbaa !49
  %19 = fpext float %18 to double
  %20 = tail call i32 (ptr, ...) @printf(ptr noundef nonnull dereferenceable(1) @.str.5, double noundef %13, double noundef %16, double noundef %19)
  %21 = getelementptr inbounds nuw i8, ptr %0, i64 240
  %22 = load ptr, ptr %21, align 8, !tbaa !38
  %23 = tail call i32 (ptr, ...) @printf(ptr noundef nonnull dereferenceable(1) @.str.6, ptr noundef %22)
  %putchar = tail call i32 @putchar(i32 10)
  ret void
}